target datalayout = "e-m:e-p270:32:32-p271:32:32-p272:64:64-i64:64-i128:128-f80:128-n8:16:32:64-S128"
target triple = "x86_64-pc-linux-gnu"

%"class.OpenSubdiv::v3_6_0::Bfr::VertexDescriptor" = type { i8, i16, float, %"class.OpenSubdiv::v3_6_0::Vtr::internal::StackBuffer", %"class.OpenSubdiv::v3_6_0::Vtr::internal::StackBuffer.0" }
%"class.OpenSubdiv::v3_6_0::Vtr::internal::StackBuffer" = type { ptr, i32, i32, [64 x i8], ptr }
%"class.OpenSubdiv::v3_6_0::Vtr::internal::StackBuffer.0" = type { ptr, i32, i32, [32 x i8], ptr }

; Function Attrs: mustprogress nounwind uwtable
define linkonce_odr void @_ZSt9__fill_a1IPffEN9__gnu_cxx11__enable_ifIXsr11__is_scalarIT0_EE7__valueEvE6__typeET_S6_RKS3_(ptr noundef %0, ptr noundef %1, ptr noundef nonnull align 4 dereferenceable(4) %2) #1 comdat {
  %4 = alloca ptr, align 8
  %5 = alloca ptr, align 8
  %6 = alloca ptr, align 8
  %7 = alloca float, align 4
  store ptr %0, ptr %4, align 8
  store ptr %1, ptr %5, align 8
  store ptr %2, ptr %6, align 8
  %8 = load ptr, ptr %6, align 8
  %9 = load float, ptr %8, align 4
  store float %9, ptr %7, align 4
  br label %10

10:                                               ; preds = %17, %3
  %11 = load ptr, ptr %4, align 8
  %12 = load ptr, ptr %5, align 8
  %13 = icmp ne ptr %11, %12
  br i1 %13, label %14, label %20

14:                                               ; preds = %10
  %15 = load float, ptr %7, align 4
  %16 = load ptr, ptr %4, align 8
  store float %15, ptr %16, align 4
  br label %17

17:                                               ; preds = %14
  %18 = load ptr, ptr %4, align 8
  %19 = getelementptr inbounds float, ptr %18, i32 1
  store ptr %19, ptr %4, align 8
  br label %10, !llvm.loop !8

20:                                               ; preds = %10
  ret void
}

; Function Attrs: mustprogress uwtable
define linkonce_odr void @_ZSt8__fill_aIPffEvT_S1_RKT0_(ptr noundef %0, ptr noundef %1, ptr noundef nonnull align 4 dereferenceable(4) %2) #0 comdat {
  %4 = alloca ptr, align 8
  %5 = alloca ptr, align 8
  %6 = alloca ptr, align 8
  store ptr %0, ptr %4, align 8
  store ptr %1, ptr %5, align 8
  store ptr %2, ptr %6, align 8
  %7 = load ptr, ptr %4, align 8
  %8 = load ptr, ptr %5, align 8
  %9 = load ptr, ptr %6, align 8
  call void @_ZSt9__fill_a1IPffEN9__gnu_cxx11__enable_ifIXsr11__is_scalarIT0_EE7__valueEvE6__typeET_S6_RKS3_(ptr noundef %7, ptr noundef %8, ptr noundef nonnull align 4 dereferenceable(4) %9)
  ret void
}

; Function Attrs: mustprogress uwtable
define linkonce_odr void @_ZN10OpenSubdiv6v3_6_03Vtr8internal11StackBufferIfLj16ELb1EE8allocateEj(ptr noundef nonnull align 8 dereferenceable(88) %0, i32 noundef %1) #0 comdat align 2 {
  %3 = alloca ptr, align 8
  %4 = alloca i32, align 4
  store ptr %0, ptr %3, align 8
  store i32 %1, ptr %4, align 4
  %5 = load ptr, ptr %3, align 8
  %6 = load i32, ptr %4, align 4
  %7 = zext i32 %6 to i64
  %8 = mul i64 %7, 4
  %9 = call noalias noundef nonnull ptr @_Znwm(i64 noundef %8) #5
  %10 = getelementptr inbounds nuw %"class.OpenSubdiv::v3_6_0::Vtr::internal::StackBuffer", ptr %5, i32 0, i32 4
  store ptr %9, ptr %10, align 8
  %11 = getelementptr inbounds nuw %"class.OpenSubdiv::v3_6_0::Vtr::internal::StackBuffer", ptr %5, i32 0, i32 4
  %12 = load ptr, ptr %11, align 8
  %13 = getelementptr inbounds nuw %"class.OpenSubdiv::v3_6_0::Vtr::internal::StackBuffer", ptr %5, i32 0, i32 0
  store ptr %12, ptr %13, align 8
  %14 = load i32, ptr %4, align 4
  %15 = getelementptr inbounds nuw %"class.OpenSubdiv::v3_6_0::Vtr::internal::StackBuffer", ptr %5, i32 0, i32 2
  store i32 %14, ptr %15, align 4
  ret void
}

; Function Attrs: mustprogress nounwind uwtable
define linkonce_odr void @_ZN10OpenSubdiv6v3_6_03Vtr8internal11StackBufferIfLj16ELb1EE10deallocateEv(ptr noundef nonnull align 8 dereferenceable(88) %0) #1 comdat align 2 {
  %2 = alloca ptr, align 8
  store ptr %0, ptr %2, align 8
  %3 = load ptr, ptr %2, align 8
  %4 = getelementptr inbounds nuw %"class.OpenSubdiv::v3_6_0::Vtr::internal::StackBuffer", ptr %3, i32 0, i32 4
  %5 = load ptr, ptr %4, align 8
  call void @_ZdlPv(ptr noundef %5) #4
  %6 = getelementptr inbounds nuw %"class.OpenSubdiv::v3_6_0::Vtr::internal::StackBuffer", ptr %3, i32 0, i32 3
  %7 = getelementptr inbounds [64 x i8], ptr %6, i64 0, i64 0
  %8 = getelementptr inbounds nuw %"class.OpenSubdiv::v3_6_0::Vtr::internal::StackBuffer", ptr %3, i32 0, i32 0
  store ptr %7, ptr %8, align 8
  %9 = getelementptr inbounds nuw %"class.OpenSubdiv::v3_6_0::Vtr::internal::StackBuffer", ptr %3, i32 0, i32 2
  store i32 16, ptr %9, align 4
  ret void
}

; Function Attrs: mustprogress uwtable
define linkonce_odr void @_ZSt4fillIPffEvT_S1_RKT0_(ptr noundef %0, ptr noundef %1, ptr noundef nonnull align 4 dereferenceable(4) %2) #0 comdat {
  %4 = alloca ptr, align 8
  %5 = alloca ptr, align 8
  %6 = alloca ptr, align 8
  store ptr %0, ptr %4, align 8
  store ptr %1, ptr %5, align 8
  store ptr %2, ptr %6, align 8
  %7 = load ptr, ptr %4, align 8
  %8 = load ptr, ptr %5, align 8
  %9 = load ptr, ptr %6, align 8
  call void @_ZSt8__fill_aIPffEvT_S1_RKT0_(ptr noundef %7, ptr noundef %8, ptr noundef nonnull align 4 dereferenceable(4) %9)
  ret void
}

; Function Attrs: mustprogress nounwind uwtable
define linkonce_odr noundef ptr @_ZN10OpenSubdiv6v3_6_03Vtr8internal11StackBufferIfLj16ELb1EEcvPfEv(ptr noundef nonnull align 8 dereferenceable(88) %0) #1 comdat align 2 {
  %2 = alloca ptr, align 8
  store ptr %0, ptr %2, align 8
  %3 = load ptr, ptr %2, align 8
  %4 = getelementptr inbounds nuw %"class.OpenSubdiv::v3_6_0::Vtr::internal::StackBuffer", ptr %3, i32 0, i32 0
  %5 = load ptr, ptr %4, align 8
  ret ptr %5
}

; Function Attrs: mustprogress uwtable
define linkonce_odr void @_ZN10OpenSubdiv6v3_6_03Vtr8internal11StackBufferIfLj16ELb1EE7SetSizeEj(ptr noundef nonnull align 8 dereferenceable(88) %0, i32 noundef %1) #0 comdat align 2 {
  %3 = alloca ptr, align 8
  %4 = alloca i32, align 4
  store ptr %0, ptr %3, align 8
  store i32 %1, ptr %4, align 4
  %5 = load ptr, ptr %3, align 8
  %6 = load i32, ptr %4, align 4
  %7 = icmp eq i32 %6, 0
  br i1 %7, label %8, label %9

8:                                                ; preds = %2
  call void @_ZN10OpenSubdiv6v3_6_03Vtr8internal11StackBufferIfLj16ELb1EE10deallocateEv(ptr noundef nonnull align 8 dereferenceable(88) %5)
  br label %17

9:                                                ; preds = %2
  %10 = load i32, ptr %4, align 4
  %11 = getelementptr inbounds nuw %"class.OpenSubdiv::v3_6_0::Vtr::internal::StackBuffer", ptr %5, i32 0, i32 2
  %12 = load i32, ptr %11, align 4
  %13 = icmp ugt i32 %10, %12
  br i1 %13, label %14, label %16

14:                                               ; preds = %9
  call void @_ZN10OpenSubdiv6v3_6_03Vtr8internal11StackBufferIfLj16ELb1EE10deallocateEv(ptr noundef nonnull align 8 dereferenceable(88) %5)
  %15 = load i32, ptr %4, align 4
  call void @_ZN10OpenSubdiv6v3_6_03Vtr8internal11StackBufferIfLj16ELb1EE8allocateEj(ptr noundef nonnull align 8 dereferenceable(88) %5, i32 noundef %15)
  br label %16

16:                                               ; preds = %14, %9
  br label %17

17:                                               ; preds = %16, %8
  %18 = load i32, ptr %4, align 4
  %19 = getelementptr inbounds nuw %"class.OpenSubdiv::v3_6_0::Vtr::internal::StackBuffer", ptr %5, i32 0, i32 1
  store i32 %18, ptr %19, align 8
  ret void
}

; Function Attrs: mustprogress uwtable
define void @_ZN10OpenSubdiv6v3_6_03Bfr16VertexDescriptor17initEdgeSharpnessEv(ptr noundef nonnull align 8 dereferenceable(152) %0) #0 align 2 {
  %2 = alloca ptr, align 8
  %3 = alloca float, align 4
  store ptr %0, ptr %2, align 8
  %4 = load ptr, ptr %2, align 8
  %5 = getelementptr inbounds nuw %"class.OpenSubdiv::v3_6_0::Bfr::VertexDescriptor", ptr %4, i32 0, i32 3
  %6 = getelementptr inbounds nuw %"class.OpenSubdiv::v3_6_0::Bfr::VertexDescriptor", ptr %4, i32 0, i32 1
  %7 = load i16, ptr %6, align 2
  %8 = sext i16 %7 to i32
  %9 = mul nsw i32 %8, 2
  call void @_ZN10OpenSubdiv6v3_6_03Vtr8internal11StackBufferIfLj16ELb1EE7SetSizeEj(ptr noundef nonnull align 8 dereferenceable(88) %5, i32 noundef %9)
  %10 = getelementptr inbounds nuw %"class.OpenSubdiv::v3_6_0::Bfr::VertexDescriptor", ptr %4, i32 0, i32 3
  %11 = call noundef ptr @_ZN10OpenSubdiv6v3_6_03Vtr8internal11StackBufferIfLj16ELb1EEcvPfEv(ptr noundef nonnull align 8 dereferenceable(88) %10)
  %12 = getelementptr inbounds float, ptr %11, i64 0
  %13 = getelementptr inbounds nuw %"class.OpenSubdiv::v3_6_0::Bfr::VertexDescriptor", ptr %4, i32 0, i32 3
  %14 = call noundef ptr @_ZN10OpenSubdiv6v3_6_03Vtr8internal11StackBufferIfLj16ELb1EEcvPfEv(ptr noundef nonnull align 8 dereferenceable(88) %13)
  %15 = getelementptr inbounds nuw %"class.OpenSubdiv::v3_6_0::Bfr::VertexDescriptor", ptr %4, i32 0, i32 1
  %16 = load i16, ptr %15, align 2
  %17 = sext i16 %16 to i32
  %18 = mul nsw i32 %17, 2
  %19 = sext i32 %18 to i64
  %20 = getelementptr inbounds float, ptr %14, i64 %19
  store float 0.000000e+00, ptr %3, align 4
  call void @_ZSt4fillIPffEvT_S1_RKT0_(ptr noundef %12, ptr noundef %20, ptr noundef nonnull align 4 dereferenceable(4) %3)
  %21 = load i8, ptr %4, align 8
  %22 = and i8 %21, -65
  %23 = or i8 %22, 64
  store i8 %23, ptr %4, align 8
  ret void
}